Certificate:
    Data:
        Version: 3 (0x2)
        Serial Number:
            05:a8:8b:4d:77:ea:3b:43:69:ab:24:49:cd:45:d1:ae
        Signature Algorithm: sha256WithRSAEncryption
        Issuer: CN=Easy-RSA CA
        Validity
            Not Before: Mar 25 11:51:35 2025 GMT
            Not After : Jun 28 11:51:35 2027 GMT
        Subject: CN=client1
        Subject Public Key Info:
            Public Key Algorithm: rsaEncryption
                Public-Key: (2048 bit)
                Modulus:
                    00:a7:58:72:c3:b4:50:e4:21:5d:b2:4a:48:d9:f6:
                    03:9b:b5:60:ee:db:e0:80:cd:ce:2c:25:82:6a:40:
                    46:e5:9a:a2:f6:44:a0:3e:b1:09:a7:6e:63:eb:08:
                    f1:86:21:d1:d9:ef:d2:b3:af:fb:36:84:d6:24:94:
                    dd:e2:dc:27:20:d7:5b:a4:2a:8d:6c:09:02:07:68:
                    bd:27:d1:06:0d:23:22:e3:91:10:c2:da:fc:4e:02:
                    bd:7d:fe:d0:18:40:75:e9:44:a4:30:18:8f:50:49:
                    f4:05:73:2a:de:53:3a:c6:cc:bc:49:f9:06:04:70:
                    f9:26:97:67:d0:7f:76:75:1a:25:f4:ec:ba:4c:56:
                    77:d3:db:d9:a6:4f:d5:19:e0:b6:4e:c7:2b:7f:67:
                    6e:8a:cc:de:14:1e:ad:95:42:2b:7a:e2:03:16:17:
                    8f:4f:b8:1c:24:4c:8c:b5:8d:e2:70:04:a1:b3:b6:
                    c9:1d:63:54:c9:f1:31:d8:d9:a3:05:81:50:ea:87:
                    b9:e8:bc:73:2a:1e:78:39:76:ce:59:bf:4f:d7:79:
                    c3:97:ae:28:93:13:3c:31:d0:07:65:61:53:b1:03:
                    13:97:79:d8:d2:4a:a0:e6:93:3b:1c:37:d5:6b:a6:
                    54:9d:fb:fa:b2:e2:f0:89:01:53:4d:fd:a0:a3:6d:
                    92:2d
                Exponent: 65537 (0x10001)
        X509v3 extensions:
            X509v3 Basic Constraints: 
                CA:FALSE
            X509v3 Subject Key Identifier: 
                27:A5:93:27:24:2B:DE:5E:0B:0C:E1:2D:AD:80:28:3E:F2:97:37:D5
            X509v3 Authority Key Identifier: 
                keyid:7B:75:6E:F0:72:B1:BE:14:51:86:01:B0:ED:CC:E5:8F:1F:ED:F0:74
                DirName:/CN=Easy-RSA CA
                serial:08:F2:AF:88:C2:62:40:99:32:FD:22:E0:CB:98:04:E9:84:D7:4E:E1
            X509v3 Extended Key Usage: 
                TLS Web Client Authentication
            X509v3 Key Usage: 
                Digital Signature
    Signature Algorithm: sha256WithRSAEncryption
    Signature Value:
        85:fe:22:09:39:d9:f0:4f:9f:12:2d:db:fa:1d:85:22:cc:e7:
        6b:29:c3:f2:cc:c4:a4:fc:d3:91:d6:fb:8f:a4:61:3d:0b:ea:
        dc:3f:1b:b9:f3:88:9f:1a:d8:2d:60:3f:d4:05:a9:64:64:80:
        35:7a:a9:30:ad:53:21:bc:3d:8e:ca:f6:cb:cb:ce:f9:da:1c:
        e8:97:4f:23:28:5f:07:d6:ad:6b:b9:b7:8c:63:dc:a0:c8:96:
        56:63:ba:e0:e9:1a:4e:ab:c5:93:42:e6:d9:72:11:24:6c:45:
        21:45:59:05:52:a8:8a:d2:09:4e:39:ff:a1:a5:b1:03:1b:bc:
        00:d5:26:13:d5:cc:ea:9e:2b:f1:88:91:ae:4d:79:a2:a1:1f:
        c1:7a:a5:fb:f0:29:f0:17:51:66:7f:08:72:00:44:22:bf:9d:
        9f:58:37:b8:ff:aa:f0:f3:b1:54:33:61:bf:82:e5:f5:34:5d:
        2c:2c:10:9e:1c:cf:f0:97:76:8a:2c:41:c9:c8:0f:0b:97:bb:
        c2:43:9e:71:7d:74:dc:7e:19:29:06:78:18:a5:40:5b:05:66:
        da:82:8d:52:77:1a:48:d0:53:1c:41:45:22:3c:71:fc:13:f5:
        22:23:7e:99:2c:f8:07:9a:14:6f:a6:c1:c1:06:4f:ac:5f:76:
        e2:c6:4c:02
-----BEGIN CERTIFICATE-----
MIIDVTCCAj2gAwIBAgIQBaiLTXfqO0NpqyRJzUXRrjANBgkqhkiG9w0BAQsFADAW
MRQwEgYDVQQDDAtFYXN5LVJTQSBDQTAeFw0yNTAzMjUxMTUxMzVaFw0yNzA2Mjgx
MTUxMzVaMBIxEDAOBgNVBAMMB2NsaWVudDEwggEiMA0GCSqGSIb3DQEBAQUAA4IB
DwAwggEKAoIBAQCnWHLDtFDkIV2ySkjZ9gObtWDu2+CAzc4sJYJqQEblmqL2RKA+
sQmnbmPrCPGGIdHZ79Kzr/s2hNYklN3i3Ccg11ukKo1sCQIHaL0n0QYNIyLjkRDC
2vxOAr19/tAYQHXpRKQwGI9QSfQFcyreUzrGzLxJ+QYEcPkml2fQf3Z1GiX07LpM
VnfT29mmT9UZ4LZOxyt/Z26KzN4UHq2VQit64gMWF49PuBwkTIy1jeJwBKGztskd
Y1TJ8THY2aMFgVDqh7novHMqHng5ds5Zv0/XecOXriiTEzwx0AdlYVOxAxOXedjS
SqDmkzscN9VrplSd+/qy4vCJAVNN/aCjbZItAgMBAAGjgaIwgZ8wCQYDVR0TBAIw
ADAdBgNVHQ4EFgQUJ6WTJyQr3l4LDOEtrYAoPvKXN9UwUQYDVR0jBEowSIAUe3Vu
8HKxvhRRhgGw7czljx/t8HShGqQYMBYxFDASBgNVBAMMC0Vhc3ktUlNBIENBghQI
8q+IwmJAmTL9IuDLmATphNdO4TATBgNVHSUEDDAKBggrBgEFBQcDAjALBgNVHQ8E
BAMCB4AwDQYJKoZIhvcNAQELBQADggEBAIX+Igk52fBPnxIt2/odhSLM52spw/LM
xKT805HW+4+kYT0L6tw/G7nziJ8a2C1gP9QFqWRkgDV6qTCtUyG8PY7K9svLzvna
HOiXTyMoXwfWrWu5t4xj3KDIllZjuuDpGk6rxZNC5tlyESRsRSFFWQVSqIrSCU45
/6GlsQMbvADVJhPVzOqeK/GIka5NeaKhH8F6pfvwKfAXUWZ/CHIARCK/nZ9YN7j/
qvDzsVQzYb+C5fU0XSwsEJ4cz/CXdoosQcnIDwuXu8JDnnF9dNx+GSkGeBilQFsF
ZtqCjVJ3GkjQUxxBRSI8cfwT9SIjfpks+AeaFG+mwcEGT6xfduLGTAI=
-----END CERTIFICATE-----
