Certificate:
    Data:
        Version: 3 (0x2)
        Serial Number:
            bb:af:30:98:c7:6b:c6:48:4a:2c:a6:b6:c0:5e:78:04
        Signature Algorithm: sha256WithRSAEncryption
        Issuer: CN=Easy-RSA CA
        Validity
            Not Before: Mar 25 05:46:59 2025 GMT
            Not After : Jun 28 05:46:59 2027 GMT
        Subject: CN=client1
        Subject Public Key Info:
            Public Key Algorithm: rsaEncryption
                Public-Key: (2048 bit)
                Modulus:
                    00:b0:09:49:0c:1f:ec:fd:be:d3:73:98:a4:79:4a:
                    96:43:e7:cb:29:23:f7:3b:01:f5:2d:21:7a:ca:e3:
                    f0:fc:86:77:99:e7:a4:68:93:eb:d0:9e:72:ae:77:
                    b5:2f:18:c8:69:61:14:b2:89:d4:34:7a:58:d7:58:
                    df:15:78:34:36:44:be:31:c2:9a:38:be:10:87:ed:
                    20:34:b6:19:87:0b:a5:55:a2:e9:f9:ad:02:2e:51:
                    d2:a9:2c:4f:7b:0a:af:57:14:40:61:0c:51:cc:8d:
                    83:ea:a3:3f:4c:ba:01:b0:f6:47:90:0f:6e:40:65:
                    78:e8:8a:49:4d:56:cd:53:03:85:a3:14:d6:6c:c2:
                    5d:38:63:ae:bf:22:f0:2e:65:e6:76:e9:3b:bb:2d:
                    0f:75:77:d8:d0:20:bd:b6:3a:40:67:94:09:74:a0:
                    5d:1a:85:5a:e3:a2:55:7b:28:65:ee:f7:7d:c1:3b:
                    34:16:ca:ef:8d:8e:f4:1b:c1:db:5a:f4:90:04:dd:
                    d4:ae:be:d4:27:fc:af:db:ef:eb:b3:c9:39:d1:b7:
                    d3:8c:a3:1e:9e:21:6c:9d:7e:f3:0c:11:f5:58:6f:
                    ec:94:1f:45:e7:89:69:c6:2f:bd:63:0d:9c:2e:9e:
                    78:34:40:8a:2c:3a:c4:c9:50:c0:61:7a:c0:76:bc:
                    2f:95
                Exponent: 65537 (0x10001)
        X509v3 extensions:
            X509v3 Basic Constraints: 
                CA:FALSE
            X509v3 Subject Key Identifier: 
                BF:A6:14:08:65:97:B3:AD:3A:49:95:EF:EA:24:C4:BA:E2:AF:E0:2E
            X509v3 Authority Key Identifier: 
                keyid:A8:10:F2:72:A8:18:25:78:F7:F1:8C:08:44:34:07:26:2C:14:5C:14
                DirName:/CN=Easy-RSA CA
                serial:3A:CC:05:7D:CE:B9:C9:BC:D3:AF:56:09:D7:B5:87:A6:18:71:9A:E1
            X509v3 Extended Key Usage: 
                TLS Web Client Authentication
            X509v3 Key Usage: 
                Digital Signature
    Signature Algorithm: sha256WithRSAEncryption
    Signature Value:
        2f:09:77:6c:0d:ef:2e:c8:60:f1:4f:9d:10:80:34:df:e2:e0:
        1d:03:e9:6f:ff:37:e5:f8:c6:6e:38:de:29:a0:b1:59:02:af:
        37:26:2c:3c:80:88:d2:f6:4b:8f:ab:92:6a:65:fe:15:bf:19:
        0e:75:c5:1d:b3:22:c4:46:32:11:f0:9e:ec:1a:cf:fd:0f:49:
        77:db:6f:c6:c1:a0:68:6a:79:d5:d2:9f:1c:e6:71:07:20:6c:
        34:2b:24:24:c2:92:fc:fa:2b:24:41:19:db:76:df:97:0a:27:
        57:59:9e:33:c0:5c:bd:6a:85:b0:e2:98:88:1c:f5:cc:d9:b1:
        4d:c5:60:69:ea:a6:d6:63:65:17:7d:11:7f:46:6a:29:5a:06:
        19:18:24:fd:df:27:98:42:3f:ab:20:7d:ee:52:e7:d4:70:b2:
        4c:4a:0a:f1:b3:55:16:ba:b9:6e:2d:8b:9b:fe:0e:3f:93:51:
        9b:e9:40:7c:cc:f5:c6:0e:23:96:93:80:b2:b6:37:db:7d:a3:
        2e:58:5f:ca:8f:69:68:c1:da:28:86:8e:17:80:a9:53:f8:c7:
        80:f8:f7:fc:a2:55:fe:b5:4b:3b:d3:2f:92:69:0e:e7:ff:ad:
        b2:53:21:64:48:46:c6:1c:c4:6f:73:28:cd:56:73:06:e4:9f:
        7e:89:51:00
-----BEGIN CERTIFICATE-----
MIIDVjCCAj6gAwIBAgIRALuvMJjHa8ZISiymtsBeeAQwDQYJKoZIhvcNAQELBQAw
FjEUMBIGA1UEAwwLRWFzeS1SU0EgQ0EwHhcNMjUwMzI1MDU0NjU5WhcNMjcwNjI4
MDU0NjU5WjASMRAwDgYDVQQDDAdjbGllbnQxMIIBIjANBgkqhkiG9w0BAQEFAAOC
AQ8AMIIBCgKCAQEAsAlJDB/s/b7Tc5ikeUqWQ+fLKSP3OwH1LSF6yuPw/IZ3meek
aJPr0J5yrne1LxjIaWEUsonUNHpY11jfFXg0NkS+McKaOL4Qh+0gNLYZhwulVaLp
+a0CLlHSqSxPewqvVxRAYQxRzI2D6qM/TLoBsPZHkA9uQGV46IpJTVbNUwOFoxTW
bMJdOGOuvyLwLmXmduk7uy0PdXfY0CC9tjpAZ5QJdKBdGoVa46JVeyhl7vd9wTs0
FsrvjY70G8HbWvSQBN3Urr7UJ/yv2+/rs8k50bfTjKMeniFsnX7zDBH1WG/slB9F
54lpxi+9Yw2cLp54NECKLDrEyVDAYXrAdrwvlQIDAQABo4GiMIGfMAkGA1UdEwQC
MAAwHQYDVR0OBBYEFL+mFAhll7OtOkmV7+okxLrir+AuMFEGA1UdIwRKMEiAFKgQ
8nKoGCV49/GMCEQ0ByYsFFwUoRqkGDAWMRQwEgYDVQQDDAtFYXN5LVJTQSBDQYIU
OswFfc65ybzTr1YJ17WHphhxmuEwEwYDVR0lBAwwCgYIKwYBBQUHAwIwCwYDVR0P
BAQDAgeAMA0GCSqGSIb3DQEBCwUAA4IBAQAvCXdsDe8uyGDxT50QgDTf4uAdA+lv
/zfl+MZuON4poLFZAq83Jiw8gIjS9kuPq5JqZf4VvxkOdcUdsyLERjIR8J7sGs/9
D0l322/GwaBoannV0p8c5nEHIGw0KyQkwpL8+iskQRnbdt+XCidXWZ4zwFy9aoWw
4piIHPXM2bFNxWBp6qbWY2UXfRF/RmopWgYZGCT93yeYQj+rIH3uUufUcLJMSgrx
s1UWurluLYub/g4/k1Gb6UB8zPXGDiOWk4CytjfbfaMuWF/Kj2lowdooho4XgKlT
+MeA+Pf8olX+tUs70y+SaQ7n/62yUyFkSEbGHMRvcyjNVnMG5J9+iVEA
-----END CERTIFICATE-----
